target datalayout = "e-m:e-p270:32:32-p271:32:32-p272:64:64-i64:64-i128:128-f80:128-n8:16:32:64-S128"
target triple = "x86_64-pc-linux-gnu"

@current_lang_pack = internal global ptr null, align 8
@current_lang = internal global ptr null, align 8

; Function Attrs: nounwind uwtable
define i32 @lv_i18n_init(ptr noundef %0) #0 {
  %2 = alloca i32, align 4
  %3 = alloca ptr, align 8
  store ptr %0, ptr %3, align 8, !tbaa !3
  %4 = load ptr, ptr %3, align 8, !tbaa !3
  %5 = icmp eq ptr %4, null
  br i1 %5, label %6, label %7

6:                                                ; preds = %1
  store i32 -1, ptr %2, align 4
  br label %18

7:                                                ; preds = %1
  %8 = load ptr, ptr %3, align 8, !tbaa !3
  %9 = getelementptr inbounds ptr, ptr %8, i64 0
  %10 = load ptr, ptr %9, align 8, !tbaa !3
  %11 = icmp eq ptr %10, null
  br i1 %11, label %12, label %13

12:                                               ; preds = %7
  store i32 -1, ptr %2, align 4
  br label %18

13:                                               ; preds = %7
  %14 = load ptr, ptr %3, align 8, !tbaa !3
  store ptr %14, ptr @current_lang_pack, align 8, !tbaa !3
  %15 = load ptr, ptr %3, align 8, !tbaa !3
  %16 = getelementptr inbounds ptr, ptr %15, i64 0
  %17 = load ptr, ptr %16, align 8, !tbaa !3
  store ptr %17, ptr @current_lang, align 8, !tbaa !3
  store i32 0, ptr %2, align 4
  br label %18

18:                                               ; preds = %13, %12, %6
  %19 = load i32, ptr %2, align 4
  ret i32 %19
}