; Function Attrs: mustprogress nofree norecurse nosync nounwind willreturn memory(write, argmem: read, inaccessiblemem: none) uwtable
define range(i32 -1, 1) i32 @lv_i18n_init(ptr noundef %0) local_unnamed_addr #1 {
  %2 = icmp eq ptr %0, null
  br i1 %2, label %7, label %3

3:                                                ; preds = %1
  %4 = load ptr, ptr %0, align 8, !tbaa !3
  %5 = icmp eq ptr %4, null
  br i1 %5, label %7, label %6

6:                                                ; preds = %3
  store ptr %0, ptr @current_lang_pack, align 8, !tbaa !3
  store ptr %4, ptr @current_lang, align 8, !tbaa !3
  br label %7

7:                                                ; preds = %3, %1, %6
  %.0 = phi i32 [ 0, %6 ], [ -1, %1 ], [ -1, %3 ]
  ret i32 %.0
}